target datalayout = "e-m:e-p270:32:32-p271:32:32-p272:64:64-i64:64-i128:128-f80:128-n8:16:32:64-S128"
target triple = "x86_64-unknown-linux-gnu"

%struct.e1000_context_desc = type { %union.anon.4, %union.anon.5, i32, %union.anon.7 }
%union.anon.4 = type { i32 }
%union.anon.5 = type { i32 }
%union.anon.7 = type { i32 }
%struct.anon = type { i8, i8, i16 }
%struct.e1000x_txd_props = type { i8, i8, i16, i8, i8, i16, i32, i8, i16, i8, i8, i8 }
%struct.anon.6 = type { i8, i8, i16 }
%struct.anon.8 = type { i8, i8, i16 }

; Function Attrs: nounwind sspstrong uwtable
define internal zeroext i16 @le16_to_cpu(i16 noundef zeroext %v) #0 {
entry:
  %v.addr = alloca i16, align 2
  store i16 %v, ptr %v.addr, align 2
  %0 = load i16, ptr %v.addr, align 2
  ret i16 %0
}

; Function Attrs: nounwind sspstrong uwtable
define internal i32 @le32_to_cpu(i32 noundef %v) #0 {
entry:
  %v.addr = alloca i32, align 4
  store i32 %v, ptr %v.addr, align 4
  %0 = load i32, ptr %v.addr, align 4
  ret i32 %0
}

; Function Attrs: nounwind sspstrong uwtable
define dso_local void @e1000x_read_tx_ctx_descr(ptr noundef %d, ptr noundef %props) #0 {
entry:
  %d.addr = alloca ptr, align 8
  %props.addr = alloca ptr, align 8
  %op = alloca i32, align 4
  store ptr %d, ptr %d.addr, align 8
  store ptr %props, ptr %props.addr, align 8
  %0 = load ptr, ptr %d.addr, align 8
  %cmd_and_length = getelementptr inbounds %struct.e1000_context_desc, ptr %0, i32 0, i32 2
  %1 = load i32, ptr %cmd_and_length, align 4
  %call = call i32 @le32_to_cpu(i32 noundef %1)
  store i32 %call, ptr %op, align 4
  %2 = load ptr, ptr %d.addr, align 8
  %lower_setup = getelementptr inbounds %struct.e1000_context_desc, ptr %2, i32 0, i32 0
  %ipcss = getelementptr inbounds %struct.anon, ptr %lower_setup, i32 0, i32 0
  %3 = load i8, ptr %ipcss, align 4
  %4 = load ptr, ptr %props.addr, align 8
  %ipcss1 = getelementptr inbounds %struct.e1000x_txd_props, ptr %4, i32 0, i32 0
  store i8 %3, ptr %ipcss1, align 4
  %5 = load ptr, ptr %d.addr, align 8
  %lower_setup2 = getelementptr inbounds %struct.e1000_context_desc, ptr %5, i32 0, i32 0
  %ipcso = getelementptr inbounds %struct.anon, ptr %lower_setup2, i32 0, i32 1
  %6 = load i8, ptr %ipcso, align 1
  %7 = load ptr, ptr %props.addr, align 8
  %ipcso3 = getelementptr inbounds %struct.e1000x_txd_props, ptr %7, i32 0, i32 1
  store i8 %6, ptr %ipcso3, align 1
  %8 = load ptr, ptr %d.addr, align 8
  %lower_setup4 = getelementptr inbounds %struct.e1000_context_desc, ptr %8, i32 0, i32 0
  %ipcse = getelementptr inbounds %struct.anon, ptr %lower_setup4, i32 0, i32 2
  %9 = load i16, ptr %ipcse, align 2
  %call5 = call zeroext i16 @le16_to_cpu(i16 noundef zeroext %9)
  %10 = load ptr, ptr %props.addr, align 8
  %ipcse6 = getelementptr inbounds %struct.e1000x_txd_props, ptr %10, i32 0, i32 2
  store i16 %call5, ptr %ipcse6, align 2
  %11 = load ptr, ptr %d.addr, align 8
  %upper_setup = getelementptr inbounds %struct.e1000_context_desc, ptr %11, i32 0, i32 1
  %tucss = getelementptr inbounds %struct.anon.6, ptr %upper_setup, i32 0, i32 0
  %12 = load i8, ptr %tucss, align 4
  %13 = load ptr, ptr %props.addr, align 8
  %tucss7 = getelementptr inbounds %struct.e1000x_txd_props, ptr %13, i32 0, i32 3
  store i8 %12, ptr %tucss7, align 4
  %14 = load ptr, ptr %d.addr, align 8
  %upper_setup8 = getelementptr inbounds %struct.e1000_context_desc, ptr %14, i32 0, i32 1
  %tucso = getelementptr inbounds %struct.anon.6, ptr %upper_setup8, i32 0, i32 1
  %15 = load i8, ptr %tucso, align 1
  %16 = load ptr, ptr %props.addr, align 8
  %tucso9 = getelementptr inbounds %struct.e1000x_txd_props, ptr %16, i32 0, i32 4
  store i8 %15, ptr %tucso9, align 1
  %17 = load ptr, ptr %d.addr, align 8
  %upper_setup10 = getelementptr inbounds %struct.e1000_context_desc, ptr %17, i32 0, i32 1
  %tucse = getelementptr inbounds %struct.anon.6, ptr %upper_setup10, i32 0, i32 2
  %18 = load i16, ptr %tucse, align 2
  %call11 = call zeroext i16 @le16_to_cpu(i16 noundef zeroext %18)
  %19 = load ptr, ptr %props.addr, align 8
  %tucse12 = getelementptr inbounds %struct.e1000x_txd_props, ptr %19, i32 0, i32 5
  store i16 %call11, ptr %tucse12, align 2
  %20 = load i32, ptr %op, align 4
  %and = and i32 %20, 1048575
  %21 = load ptr, ptr %props.addr, align 8
  %paylen = getelementptr inbounds %struct.e1000x_txd_props, ptr %21, i32 0, i32 6
  store i32 %and, ptr %paylen, align 4
  %22 = load ptr, ptr %d.addr, align 8
  %tcp_seg_setup = getelementptr inbounds %struct.e1000_context_desc, ptr %22, i32 0, i32 3
  %hdr_len = getelementptr inbounds %struct.anon.8, ptr %tcp_seg_setup, i32 0, i32 1
  %23 = load i8, ptr %hdr_len, align 1
  %24 = load ptr, ptr %props.addr, align 8
  %hdr_len13 = getelementptr inbounds %struct.e1000x_txd_props, ptr %24, i32 0, i32 7
  store i8 %23, ptr %hdr_len13, align 4
  %25 = load ptr, ptr %d.addr, align 8
  %tcp_seg_setup14 = getelementptr inbounds %struct.e1000_context_desc, ptr %25, i32 0, i32 3
  %mss = getelementptr inbounds %struct.anon.8, ptr %tcp_seg_setup14, i32 0, i32 2
  %26 = load i16, ptr %mss, align 2
  %call15 = call zeroext i16 @le16_to_cpu(i16 noundef zeroext %26)
  %27 = load ptr, ptr %props.addr, align 8
  %mss16 = getelementptr inbounds %struct.e1000x_txd_props, ptr %27, i32 0, i32 8
  store i16 %call15, ptr %mss16, align 2
  %28 = load i32, ptr %op, align 4
  %and17 = and i32 %28, 33554432
  %tobool = icmp ne i32 %and17, 0
  %cond = select i1 %tobool, i32 1, i32 0
  %conv = trunc i32 %cond to i8
  %29 = load ptr, ptr %props.addr, align 8
  %ip = getelementptr inbounds %struct.e1000x_txd_props, ptr %29, i32 0, i32 9
  store i8 %conv, ptr %ip, align 4
  %30 = load i32, ptr %op, align 4
  %and18 = and i32 %30, 16777216
  %tobool19 = icmp ne i32 %and18, 0
  %cond20 = select i1 %tobool19, i32 1, i32 0
  %conv21 = trunc i32 %cond20 to i8
  %31 = load ptr, ptr %props.addr, align 8
  %tcp = getelementptr inbounds %struct.e1000x_txd_props, ptr %31, i32 0, i32 10
  store i8 %conv21, ptr %tcp, align 1
  %32 = load i32, ptr %op, align 4
  %and22 = and i32 %32, 67108864
  %tobool23 = icmp ne i32 %and22, 0
  %cond24 = select i1 %tobool23, i32 1, i32 0
  %tobool25 = icmp ne i32 %cond24, 0
  %33 = load ptr, ptr %props.addr, align 8
  %tse = getelementptr inbounds %struct.e1000x_txd_props, ptr %33, i32 0, i32 11
  %frombool = zext i1 %tobool25 to i8
  store i8 %frombool, ptr %tse, align 2
  ret void
}