; Function Attrs: mustprogress nofree norecurse nosync nounwind sspstrong willreturn memory(argmem: readwrite) uwtable
define dso_local void @e1000x_read_tx_ctx_descr(ptr noundef readonly captures(none) %d, ptr noundef writeonly captures(none) initializes((0, 13), (14, 19)) %props) local_unnamed_addr #5 {
entry:
  %cmd_and_length = getelementptr inbounds nuw i8, ptr %d, i64 8
  %0 = load i32, ptr %cmd_and_length, align 4
  %1 = load i8, ptr %d, align 4
  store i8 %1, ptr %props, align 4
  %ipcso = getelementptr inbounds nuw i8, ptr %d, i64 1
  %2 = load i8, ptr %ipcso, align 1
  %ipcso3 = getelementptr inbounds nuw i8, ptr %props, i64 1
  store i8 %2, ptr %ipcso3, align 1
  %ipcse = getelementptr inbounds nuw i8, ptr %d, i64 2
  %3 = load i16, ptr %ipcse, align 2
  %ipcse6 = getelementptr inbounds nuw i8, ptr %props, i64 2
  store i16 %3, ptr %ipcse6, align 2
  %upper_setup = getelementptr inbounds nuw i8, ptr %d, i64 4
  %4 = load i8, ptr %upper_setup, align 4
  %tucss7 = getelementptr inbounds nuw i8, ptr %props, i64 4
  store i8 %4, ptr %tucss7, align 4
  %tucso = getelementptr inbounds nuw i8, ptr %d, i64 5
  %5 = load i8, ptr %tucso, align 1
  %tucso9 = getelementptr inbounds nuw i8, ptr %props, i64 5
  store i8 %5, ptr %tucso9, align 1
  %tucse = getelementptr inbounds nuw i8, ptr %d, i64 6
  %6 = load i16, ptr %tucse, align 2
  %tucse12 = getelementptr inbounds nuw i8, ptr %props, i64 6
  store i16 %6, ptr %tucse12, align 2
  %and = and i32 %0, 1048575
  %paylen = getelementptr inbounds nuw i8, ptr %props, i64 8
  store i32 %and, ptr %paylen, align 4
  %hdr_len = getelementptr inbounds nuw i8, ptr %d, i64 13
  %7 = load i8, ptr %hdr_len, align 1
  %hdr_len13 = getelementptr inbounds nuw i8, ptr %props, i64 12
  store i8 %7, ptr %hdr_len13, align 4
  %mss = getelementptr inbounds nuw i8, ptr %d, i64 14
  %8 = load i16, ptr %mss, align 2
  %mss16 = getelementptr inbounds nuw i8, ptr %props, i64 14
  store i16 %8, ptr %mss16, align 2
  %and17 = lshr i32 %0, 25
  %9 = trunc nuw nsw i32 %and17 to i8
  %conv = and i8 %9, 1
  %ip = getelementptr inbounds nuw i8, ptr %props, i64 16
  store i8 %conv, ptr %ip, align 4
  %and18 = lshr i32 %0, 24
  %10 = trunc nuw i32 %and18 to i8
  %conv21 = and i8 %10, 1
  %tcp = getelementptr inbounds nuw i8, ptr %props, i64 17
  store i8 %conv21, ptr %tcp, align 1
  %tse = getelementptr inbounds nuw i8, ptr %props, i64 18
  %and22 = lshr i32 %0, 26
  %11 = trunc nuw nsw i32 %and22 to i8
  %frombool = and i8 %11, 1
  store i8 %frombool, ptr %tse, align 2
  ret void
}